target datalayout = "e-m:e-p270:32:32-p271:32:32-p272:64:64-i64:64-i128:128-f80:128-n8:16:32:64-S128"
target triple = "x86_64-pc-linux-gnu"

%struct.QMapDataBase = type { %"class.QtPrivate::RefCount", i32, %struct.QMapNodeBase, ptr }
%"class.QtPrivate::RefCount" = type { %class.QBasicAtomicInteger }
%class.QBasicAtomicInteger = type { %"struct.std::atomic" }
%"struct.std::atomic" = type { %"struct.std::__atomic_base" }
%"struct.std::__atomic_base" = type { i32 }
%struct.QMapNodeBase = type { i64, ptr, ptr }
%class.QString = type { ptr }
%class.LayerDialog = type { %class.QDockWidget, ptr, ptr, ptr, ptr, ptr, %class.QMap, i8, [4 x %class.QString], [4 x %class.QMap.16], i32, %"class.std::vector.17", i32, ptr, ptr, i32, ptr, ptr, ptr }
%class.QDockWidget = type { %class.QWidget }
%class.QWidget = type { %class.QObject, %class.QPaintDevice, ptr }
%class.QObject = type { ptr, %class.QScopedPointer }
%class.QScopedPointer = type { ptr }
%class.QPaintDevice = type { ptr, i16, ptr }
%class.QMap = type { ptr }
%class.QMap.16 = type { ptr }
%"class.std::vector.17" = type { %"struct.std::_Vector_base.18" }
%"struct.std::_Vector_base.18" = type { %"struct.std::_Vector_base<int, std::allocator<int>>::_Vector_impl" }
%"struct.std::_Vector_base<int, std::allocator<int>>::_Vector_impl" = type { %"struct.std::_Vector_base<int, std::allocator<int>>::_Vector_impl_data" }
%"struct.std::_Vector_base<int, std::allocator<int>>::_Vector_impl_data" = type { ptr, ptr, ptr }
%struct.QMapNode.33 = type <{ %struct.QMapNodeBase, %struct.QPair, i8, [7 x i8] }>
%struct.QPair = type { i32, i32 }
%"class.QMap<QPair<int, int>, bool>::iterator" = type { ptr }

; Function Attrs: noreturn nounwind uwtable
define linkonce_odr hidden void @__clang_call_terminate(ptr noundef %0) #9 comdat {
  %2 = call ptr @__cxa_begin_catch(ptr %0) #4
  call void @_ZSt9terminatev() #18
  unreachable
}

; Function Attrs: mustprogress nounwind uwtable
define linkonce_odr noundef i32 @_ZStanSt12memory_orderSt23__memory_order_modifier(i32 noundef %0, i32 noundef %1) #0 comdat {
  %3 = alloca i32, align 4
  %4 = alloca i32, align 4
  store i32 %0, ptr %3, align 4
  store i32 %1, ptr %4, align 4
  %5 = load i32, ptr %3, align 4
  %6 = load i32, ptr %4, align 4
  %7 = and i32 %5, %6
  ret i32 %7
}

; Function Attrs: mustprogress nounwind uwtable
define linkonce_odr noundef i32 @_ZN10QAtomicOpsIiE11loadRelaxedIiEET_RKSt6atomicIS2_E(ptr noundef nonnull align 4 dereferenceable(4) %0) #0 comdat align 2 personality ptr @__gxx_personality_v0 {
  %2 = alloca ptr, align 8
  %3 = alloca i32, align 4
  %4 = alloca i32, align 4
  %5 = alloca i32, align 4
  %6 = alloca ptr, align 8
  store ptr %0, ptr %6, align 8
  %7 = load ptr, ptr %6, align 8
  store ptr %7, ptr %2, align 8
  store i32 0, ptr %3, align 4
  %8 = load ptr, ptr %2, align 8
  %9 = load i32, ptr %3, align 4
  %10 = invoke noundef i32 @_ZStanSt12memory_orderSt23__memory_order_modifier(i32 noundef %9, i32 noundef 65535)
          to label %11 unwind label %19

11:                                               ; preds = %1
  store i32 %10, ptr %4, align 4
  %12 = load i32, ptr %3, align 4
  switch i32 %12, label %13 [
    i32 1, label %15
    i32 2, label %15
    i32 5, label %17
  ]

13:                                               ; preds = %11
  %14 = load atomic i32, ptr %8 monotonic, align 4
  store i32 %14, ptr %5, align 4
  br label %22

15:                                               ; preds = %11, %11
  %16 = load atomic i32, ptr %8 acquire, align 4
  store i32 %16, ptr %5, align 4
  br label %22

17:                                               ; preds = %11
  %18 = load atomic i32, ptr %8 seq_cst, align 4
  store i32 %18, ptr %5, align 4
  br label %22

19:                                               ; preds = %1
  %20 = landingpad { ptr, i32 }
          catch ptr null
  %21 = extractvalue { ptr, i32 } %20, 0
  call void @__clang_call_terminate(ptr %21) #18
  unreachable

22:                                               ; preds = %17, %15, %13
  %23 = load i32, ptr %5, align 4
  ret i32 %23
}

; Function Attrs: mustprogress nounwind uwtable
define linkonce_odr noundef i32 @_ZNK19QBasicAtomicIntegerIiE11loadRelaxedEv(ptr noundef nonnull align 4 dereferenceable(4) %0) #0 comdat align 2 {
  %2 = alloca ptr, align 8
  store ptr %0, ptr %2, align 8
  %3 = load ptr, ptr %2, align 8
  %4 = getelementptr inbounds %class.QBasicAtomicInteger, ptr %3, i32 0, i32 0
  %5 = call noundef i32 @_ZN10QAtomicOpsIiE11loadRelaxedIiEET_RKSt6atomicIS2_E(ptr noundef nonnull align 4 dereferenceable(4) %4) #4
  ret i32 %5
}

; Function Attrs: mustprogress nounwind uwtable
define linkonce_odr noundef zeroext i1 @_ZltIiiEbRK5QPairIT_T0_ES5_(ptr noundef nonnull align 4 dereferenceable(8) %0, ptr noundef nonnull align 4 dereferenceable(8) %1) #0 comdat {
  %3 = alloca ptr, align 8
  %4 = alloca ptr, align 8
  store ptr %0, ptr %3, align 8
  store ptr %1, ptr %4, align 8
  %5 = load ptr, ptr %3, align 8
  %6 = getelementptr inbounds %struct.QPair, ptr %5, i32 0, i32 0
  %7 = load i32, ptr %6, align 4
  %8 = load ptr, ptr %4, align 8
  %9 = getelementptr inbounds %struct.QPair, ptr %8, i32 0, i32 0
  %10 = load i32, ptr %9, align 4
  %11 = icmp slt i32 %7, %10
  br i1 %11, label %30, label %12

12:                                               ; preds = %2
  %13 = load ptr, ptr %4, align 8
  %14 = getelementptr inbounds %struct.QPair, ptr %13, i32 0, i32 0
  %15 = load i32, ptr %14, align 4
  %16 = load ptr, ptr %3, align 8
  %17 = getelementptr inbounds %struct.QPair, ptr %16, i32 0, i32 0
  %18 = load i32, ptr %17, align 4
  %19 = icmp slt i32 %15, %18
  br i1 %19, label %28, label %20

20:                                               ; preds = %12
  %21 = load ptr, ptr %3, align 8
  %22 = getelementptr inbounds %struct.QPair, ptr %21, i32 0, i32 1
  %23 = load i32, ptr %22, align 4
  %24 = load ptr, ptr %4, align 8
  %25 = getelementptr inbounds %struct.QPair, ptr %24, i32 0, i32 1
  %26 = load i32, ptr %25, align 4
  %27 = icmp slt i32 %23, %26
  br label %28

28:                                               ; preds = %20, %12
  %29 = phi i1 [ false, %12 ], [ %27, %20 ]
  br label %30

30:                                               ; preds = %28, %2
  %31 = phi i1 [ true, %2 ], [ %29, %28 ]
  ret i1 %31
}

; Function Attrs: mustprogress nounwind uwtable
define linkonce_odr noundef zeroext i1 @_ZNK9QtPrivate8RefCount8isSharedEv(ptr noundef nonnull align 4 dereferenceable(4) %0) #0 comdat align 2 {
  %2 = alloca ptr, align 8
  %3 = alloca i32, align 4
  store ptr %0, ptr %2, align 8
  %4 = load ptr, ptr %2, align 8
  %5 = getelementptr inbounds %"class.QtPrivate::RefCount", ptr %4, i32 0, i32 0
  %6 = call noundef i32 @_ZNK19QBasicAtomicIntegerIiE11loadRelaxedEv(ptr noundef nonnull align 4 dereferenceable(4) %5) #4
  store i32 %6, ptr %3, align 4
  %7 = load i32, ptr %3, align 4
  %8 = icmp ne i32 %7, 1
  br i1 %8, label %9, label %12

9:                                                ; preds = %1
  %10 = load i32, ptr %3, align 4
  %11 = icmp ne i32 %10, 0
  br label %12

12:                                               ; preds = %9, %1
  %13 = phi i1 [ false, %1 ], [ %11, %9 ]
  ret i1 %13
}

; Function Attrs: mustprogress uwtable
define linkonce_odr noundef ptr @_ZN8QMapDataI5QPairIiiEbE10createNodeERKS1_RKbP8QMapNodeIS1_bEb(ptr noundef nonnull align 8 dereferenceable(40) %0, ptr noundef nonnull align 4 dereferenceable(8) %1, ptr noundef nonnull align 1 dereferenceable(1) %2, ptr noundef %3, i1 noundef zeroext %4) #5 comdat align 2 {
  %6 = alloca ptr, align 8
  %7 = alloca ptr, align 8
  %8 = alloca ptr, align 8
  %9 = alloca ptr, align 8
  %10 = alloca i8, align 1
  %11 = alloca ptr, align 8
  store ptr %0, ptr %6, align 8
  store ptr %1, ptr %7, align 8
  store ptr %2, ptr %8, align 8
  store ptr %3, ptr %9, align 8
  %12 = zext i1 %4 to i8
  store i8 %12, ptr %10, align 1
  %13 = load ptr, ptr %6, align 8
  %14 = load ptr, ptr %9, align 8
  %15 = load i8, ptr %10, align 1
  %16 = trunc i8 %15 to i1
  %17 = call noundef ptr @_ZN12QMapDataBase10createNodeEiiP12QMapNodeBaseb(ptr noundef nonnull align 8 dereferenceable(40) %13, i32 noundef 40, i32 noundef 8, ptr noundef %14, i1 noundef zeroext %16)
  store ptr %17, ptr %11, align 8
  %18 = load ptr, ptr %11, align 8
  %19 = getelementptr inbounds %struct.QMapNode.33, ptr %18, i32 0, i32 1
  %20 = load ptr, ptr %7, align 8
  call void @llvm.memcpy.p0.p0.i64(ptr align 8 %19, ptr align 4 %20, i64 8, i1 false)
  %21 = load ptr, ptr %11, align 8
  %22 = getelementptr inbounds %struct.QMapNode.33, ptr %21, i32 0, i32 2
  %23 = load ptr, ptr %8, align 8
  %24 = load i8, ptr %23, align 1
  %25 = trunc i8 %24 to i1
  %26 = zext i1 %25 to i8
  store i8 %26, ptr %22, align 8
  %27 = load ptr, ptr %11, align 8
  ret ptr %27
}

; Function Attrs: mustprogress nounwind uwtable
define linkonce_odr void @_ZN4QMapI5QPairIiiEbE8iteratorC2EP8QMapNodeIS1_bE(ptr noundef nonnull align 8 dereferenceable(8) %0, ptr noundef %1) unnamed_addr #0 comdat align 2 {
  %3 = alloca ptr, align 8
  %4 = alloca ptr, align 8
  store ptr %0, ptr %3, align 8
  store ptr %1, ptr %4, align 8
  %5 = load ptr, ptr %3, align 8
  %6 = getelementptr inbounds %"class.QMap<QPair<int, int>, bool>::iterator", ptr %5, i32 0, i32 0
  %7 = load ptr, ptr %4, align 8
  store ptr %7, ptr %6, align 8
  ret void
}

; Function Attrs: mustprogress nounwind uwtable
define linkonce_odr noundef ptr @_ZNK8QMapNodeI5QPairIiiEbE9rightNodeEv(ptr noundef nonnull align 8 dereferenceable(33) %0) #0 comdat align 2 {
  %2 = alloca ptr, align 8
  store ptr %0, ptr %2, align 8
  %3 = load ptr, ptr %2, align 8
  %4 = getelementptr inbounds %struct.QMapNodeBase, ptr %3, i32 0, i32 2
  %5 = load ptr, ptr %4, align 8
  ret ptr %5
}

; Function Attrs: mustprogress nounwind uwtable
define linkonce_odr noundef ptr @_ZNK8QMapNodeI5QPairIiiEbE8leftNodeEv(ptr noundef nonnull align 8 dereferenceable(33) %0) #0 comdat align 2 {
  %2 = alloca ptr, align 8
  store ptr %0, ptr %2, align 8
  %3 = load ptr, ptr %2, align 8
  %4 = getelementptr inbounds %struct.QMapNodeBase, ptr %3, i32 0, i32 1
  %5 = load ptr, ptr %4, align 8
  ret ptr %5
}

; Function Attrs: mustprogress nounwind uwtable
define linkonce_odr noundef zeroext i1 @_Z15qMapLessThanKeyI5QPairIiiEEbRKT_S4_(ptr noundef nonnull align 4 dereferenceable(8) %0, ptr noundef nonnull align 4 dereferenceable(8) %1) #0 comdat {
  %3 = alloca ptr, align 8
  %4 = alloca ptr, align 8
  store ptr %0, ptr %3, align 8
  store ptr %1, ptr %4, align 8
  %5 = load ptr, ptr %3, align 8
  %6 = load ptr, ptr %4, align 8
  %7 = call noundef zeroext i1 @_ZltIiiEbRK5QPairIT_T0_ES5_(ptr noundef nonnull align 4 dereferenceable(8) %5, ptr noundef nonnull align 4 dereferenceable(8) %6) #4
  ret i1 %7
}

; Function Attrs: mustprogress nounwind uwtable
define linkonce_odr noundef ptr @_ZN8QMapDataI5QPairIiiEbE3endEv(ptr noundef nonnull align 8 dereferenceable(40) %0) #0 comdat align 2 {
  %2 = alloca ptr, align 8
  store ptr %0, ptr %2, align 8
  %3 = load ptr, ptr %2, align 8
  %4 = getelementptr inbounds %struct.QMapDataBase, ptr %3, i32 0, i32 2
  ret ptr %4
}

; Function Attrs: mustprogress nounwind uwtable
define linkonce_odr noundef ptr @_ZNK8QMapDataI5QPairIiiEbE4rootEv(ptr noundef nonnull align 8 dereferenceable(40) %0) #0 comdat align 2 {
  %2 = alloca ptr, align 8
  store ptr %0, ptr %2, align 8
  %3 = load ptr, ptr %2, align 8
  %4 = getelementptr inbounds %struct.QMapDataBase, ptr %3, i32 0, i32 2
  %5 = getelementptr inbounds %struct.QMapNodeBase, ptr %4, i32 0, i32 1
  %6 = load ptr, ptr %5, align 8
  ret ptr %6
}

; Function Attrs: mustprogress uwtable
define linkonce_odr void @_ZN4QMapI5QPairIiiEbE6detachEv(ptr noundef nonnull align 8 dereferenceable(8) %0) #5 comdat align 2 {
  %2 = alloca ptr, align 8
  store ptr %0, ptr %2, align 8
  %3 = load ptr, ptr %2, align 8
  %4 = getelementptr inbounds %class.QMap, ptr %3, i32 0, i32 0
  %5 = load ptr, ptr %4, align 8
  %6 = getelementptr inbounds %struct.QMapDataBase, ptr %5, i32 0, i32 0
  %7 = call noundef zeroext i1 @_ZNK9QtPrivate8RefCount8isSharedEv(ptr noundef nonnull align 4 dereferenceable(4) %6) #4
  br i1 %7, label %8, label %9

8:                                                ; preds = %1
  call void @_ZN4QMapI5QPairIiiEbE13detach_helperEv(ptr noundef nonnull align 8 dereferenceable(8) %3)
  br label %9

9:                                                ; preds = %8, %1
  ret void
}

; Function Attrs: mustprogress nounwind uwtable
define linkonce_odr void @_ZN5QPairIiiEC2ERKiS2_(ptr noundef nonnull align 4 dereferenceable(8) %0, ptr noundef nonnull align 4 dereferenceable(4) %1, ptr noundef nonnull align 4 dereferenceable(4) %2) unnamed_addr #0 comdat align 2 {
  %4 = alloca ptr, align 8
  %5 = alloca ptr, align 8
  %6 = alloca ptr, align 8
  store ptr %0, ptr %4, align 8
  store ptr %1, ptr %5, align 8
  store ptr %2, ptr %6, align 8
  %7 = load ptr, ptr %4, align 8
  %8 = getelementptr inbounds %struct.QPair, ptr %7, i32 0, i32 0
  %9 = load ptr, ptr %5, align 8
  %10 = load i32, ptr %9, align 4
  store i32 %10, ptr %8, align 4
  %11 = getelementptr inbounds %struct.QPair, ptr %7, i32 0, i32 1
  %12 = load ptr, ptr %6, align 8
  %13 = load i32, ptr %12, align 4
  store i32 %13, ptr %11, align 4
  ret void
}

; Function Attrs: mustprogress uwtable
define linkonce_odr ptr @_ZN4QMapI5QPairIiiEbE6insertERKS1_RKb(ptr noundef nonnull align 8 dereferenceable(8) %0, ptr noundef nonnull align 4 dereferenceable(8) %1, ptr noundef nonnull align 1 dereferenceable(1) %2) #5 comdat align 2 {
  %4 = alloca %"class.QMap<QPair<int, int>, bool>::iterator", align 8
  %5 = alloca ptr, align 8
  %6 = alloca ptr, align 8
  %7 = alloca ptr, align 8
  %8 = alloca ptr, align 8
  %9 = alloca ptr, align 8
  %10 = alloca ptr, align 8
  %11 = alloca i8, align 1
  %12 = alloca ptr, align 8
  store ptr %0, ptr %5, align 8
  store ptr %1, ptr %6, align 8
  store ptr %2, ptr %7, align 8
  %13 = load ptr, ptr %5, align 8
  call void @_ZN4QMapI5QPairIiiEbE6detachEv(ptr noundef nonnull align 8 dereferenceable(8) %13)
  %14 = getelementptr inbounds %class.QMap, ptr %13, i32 0, i32 0
  %15 = load ptr, ptr %14, align 8
  %16 = call noundef ptr @_ZNK8QMapDataI5QPairIiiEbE4rootEv(ptr noundef nonnull align 8 dereferenceable(40) %15)
  store ptr %16, ptr %8, align 8
  %17 = getelementptr inbounds %class.QMap, ptr %13, i32 0, i32 0
  %18 = load ptr, ptr %17, align 8
  %19 = call noundef ptr @_ZN8QMapDataI5QPairIiiEbE3endEv(ptr noundef nonnull align 8 dereferenceable(40) %18)
  store ptr %19, ptr %9, align 8
  store ptr null, ptr %10, align 8
  store i8 1, ptr %11, align 1
  br label %20

20:                                               ; preds = %36, %3
  %21 = load ptr, ptr %8, align 8
  %22 = icmp ne ptr %21, null
  br i1 %22, label %23, label %37

23:                                               ; preds = %20
  %24 = load ptr, ptr %8, align 8
  store ptr %24, ptr %9, align 8
  %25 = load ptr, ptr %8, align 8
  %26 = getelementptr inbounds %struct.QMapNode.33, ptr %25, i32 0, i32 1
  %27 = load ptr, ptr %6, align 8
  %28 = call noundef zeroext i1 @_Z15qMapLessThanKeyI5QPairIiiEEbRKT_S4_(ptr noundef nonnull align 4 dereferenceable(8) %26, ptr noundef nonnull align 4 dereferenceable(8) %27)
  br i1 %28, label %33, label %29

29:                                               ; preds = %23
  %30 = load ptr, ptr %8, align 8
  store ptr %30, ptr %10, align 8
  store i8 1, ptr %11, align 1
  %31 = load ptr, ptr %8, align 8
  %32 = call noundef ptr @_ZNK8QMapNodeI5QPairIiiEbE8leftNodeEv(ptr noundef nonnull align 8 dereferenceable(33) %31)
  store ptr %32, ptr %8, align 8
  br label %36

33:                                               ; preds = %23
  store i8 0, ptr %11, align 1
  %34 = load ptr, ptr %8, align 8
  %35 = call noundef ptr @_ZNK8QMapNodeI5QPairIiiEbE9rightNodeEv(ptr noundef nonnull align 8 dereferenceable(33) %34)
  store ptr %35, ptr %8, align 8
  br label %36

36:                                               ; preds = %33, %29
  br label %20, !llvm.loop !43

37:                                               ; preds = %20
  %38 = load ptr, ptr %10, align 8
  %39 = icmp ne ptr %38, null
  br i1 %39, label %40, label %53

40:                                               ; preds = %37
  %41 = load ptr, ptr %6, align 8
  %42 = load ptr, ptr %10, align 8
  %43 = getelementptr inbounds %struct.QMapNode.33, ptr %42, i32 0, i32 1
  %44 = call noundef zeroext i1 @_Z15qMapLessThanKeyI5QPairIiiEEbRKT_S4_(ptr noundef nonnull align 4 dereferenceable(8) %41, ptr noundef nonnull align 4 dereferenceable(8) %43)
  br i1 %44, label %53, label %45

45:                                               ; preds = %40
  %46 = load ptr, ptr %7, align 8
  %47 = load i8, ptr %46, align 1
  %48 = trunc i8 %47 to i1
  %49 = load ptr, ptr %10, align 8
  %50 = getelementptr inbounds %struct.QMapNode.33, ptr %49, i32 0, i32 2
  %51 = zext i1 %48 to i8
  store i8 %51, ptr %50, align 8
  %52 = load ptr, ptr %10, align 8
  call void @_ZN4QMapI5QPairIiiEbE8iteratorC2EP8QMapNodeIS1_bE(ptr noundef nonnull align 8 dereferenceable(8) %4, ptr noundef %52)
  br label %63

53:                                               ; preds = %40, %37
  %54 = getelementptr inbounds %class.QMap, ptr %13, i32 0, i32 0
  %55 = load ptr, ptr %54, align 8
  %56 = load ptr, ptr %6, align 8
  %57 = load ptr, ptr %7, align 8
  %58 = load ptr, ptr %9, align 8
  %59 = load i8, ptr %11, align 1
  %60 = trunc i8 %59 to i1
  %61 = call noundef ptr @_ZN8QMapDataI5QPairIiiEbE10createNodeERKS1_RKbP8QMapNodeIS1_bEb(ptr noundef nonnull align 8 dereferenceable(40) %55, ptr noundef nonnull align 4 dereferenceable(8) %56, ptr noundef nonnull align 1 dereferenceable(1) %57, ptr noundef %58, i1 noundef zeroext %60)
  store ptr %61, ptr %12, align 8
  %62 = load ptr, ptr %12, align 8
  call void @_ZN4QMapI5QPairIiiEbE8iteratorC2EP8QMapNodeIS1_bE(ptr noundef nonnull align 8 dereferenceable(8) %4, ptr noundef %62)
  br label %63

63:                                               ; preds = %53, %45
  %64 = getelementptr inbounds %"class.QMap<QPair<int, int>, bool>::iterator", ptr %4, i32 0, i32 0
  %65 = load ptr, ptr %64, align 8
  ret ptr %65
}

; Function Attrs: mustprogress nounwind uwtable
define linkonce_odr i64 @_Z9qMakePairIiiE5QPairIT_T0_ERKS1_RKS2_(ptr noundef nonnull align 4 dereferenceable(4) %0, ptr noundef nonnull align 4 dereferenceable(4) %1) #0 comdat {
  %3 = alloca %struct.QPair, align 4
  %4 = alloca ptr, align 8
  %5 = alloca ptr, align 8
  store ptr %0, ptr %4, align 8
  store ptr %1, ptr %5, align 8
  %6 = load ptr, ptr %4, align 8
  %7 = load ptr, ptr %5, align 8
  call void @_ZN5QPairIiiEC2ERKiS2_(ptr noundef nonnull align 4 dereferenceable(8) %3, ptr noundef nonnull align 4 dereferenceable(4) %6, ptr noundef nonnull align 4 dereferenceable(4) %7) #4
  %8 = load i64, ptr %3, align 4
  ret i64 %8
}

; Function Attrs: mustprogress uwtable
define void @_ZN11LayerDialog17updateExpandedMapEiib(ptr noundef nonnull align 8 dereferenceable(256) %0, i32 noundef %1, i32 noundef %2, i1 noundef zeroext %3) #5 align 2 {
  %5 = alloca ptr, align 8
  %6 = alloca i32, align 4
  %7 = alloca i32, align 4
  %8 = alloca i8, align 1
  %9 = alloca %struct.QPair, align 4
  %10 = alloca %"class.QMap<QPair<int, int>, bool>::iterator", align 8
  store ptr %0, ptr %5, align 8
  store i32 %1, ptr %6, align 4
  store i32 %2, ptr %7, align 4
  %11 = zext i1 %3 to i8
  store i8 %11, ptr %8, align 1
  %12 = load ptr, ptr %5, align 8
  %13 = getelementptr inbounds %class.LayerDialog, ptr %12, i32 0, i32 6
  %14 = call i64 @_Z9qMakePairIiiE5QPairIT_T0_ERKS1_RKS2_(ptr noundef nonnull align 4 dereferenceable(4) %6, ptr noundef nonnull align 4 dereferenceable(4) %7) #4
  store i64 %14, ptr %9, align 4
  %15 = call ptr @_ZN4QMapI5QPairIiiEbE6insertERKS1_RKb(ptr noundef nonnull align 8 dereferenceable(8) %13, ptr noundef nonnull align 4 dereferenceable(8) %9, ptr noundef nonnull align 1 dereferenceable(1) %8)
  %16 = getelementptr inbounds %"class.QMap<QPair<int, int>, bool>::iterator", ptr %10, i32 0, i32 0
  store ptr %15, ptr %16, align 8
  ret void
}