; Function Attrs: mustprogress uwtable
define void @_ZN11LayerDialog17updateExpandedMapEiib(ptr noundef nonnull align 8 dereferenceable(256) %0, i32 noundef %1, i32 noundef %2, i1 noundef zeroext %3) local_unnamed_addr #9 align 2 personality ptr @__gxx_personality_v0 {
  %5 = getelementptr inbounds i8, ptr %0, i64 88
  %.sroa.2.0.insert.ext.i = zext i32 %2 to i64
  %.sroa.2.0.insert.shift.i = shl nuw i64 %.sroa.2.0.insert.ext.i, 32
  %6 = load ptr, ptr %5, align 8
  %7 = load atomic i32, ptr %6 monotonic, align 4
  %8 = icmp ugt i32 %7, 1
  br i1 %8, label %9, label %_ZN4QMapI5QPairIiiEbE6detachEv.exit.i

9:                                                ; preds = %4
  tail call void @_ZN4QMapI5QPairIiiEbE13detach_helperEv(ptr noundef nonnull align 8 dereferenceable(8) %5)
  %.pre.i = load ptr, ptr %5, align 8
  br label %_ZN4QMapI5QPairIiiEbE6detachEv.exit.i

_ZN4QMapI5QPairIiiEbE6detachEv.exit.i:            ; preds = %9, %4
  %10 = phi ptr [ %6, %4 ], [ %.pre.i, %9 ]
  %11 = getelementptr inbounds i8, ptr %10, i64 16
  %12 = getelementptr inbounds i8, ptr %10, i64 8
  %.027.i = load ptr, ptr %11, align 8
  %.not28.i = icmp eq ptr %.027.i, null
  br i1 %.not28.i, label %_Z15qMapLessThanKeyI5QPairIiiEEbRKT_S4_.exit24.thread.i, label %.lr.ph.i

.lr.ph.i:                                         ; preds = %_ZN4QMapI5QPairIiiEbE6detachEv.exit.i, %_Z15qMapLessThanKeyI5QPairIiiEEbRKT_S4_.exit.thread25.i
  %.030.i = phi ptr [ %.0.i, %_Z15qMapLessThanKeyI5QPairIiiEEbRKT_S4_.exit.thread25.i ], [ %.027.i, %_ZN4QMapI5QPairIiiEbE6detachEv.exit.i ]
  %.02029.i = phi ptr [ %.121.i, %_Z15qMapLessThanKeyI5QPairIiiEEbRKT_S4_.exit.thread25.i ], [ null, %_ZN4QMapI5QPairIiiEbE6detachEv.exit.i ]
  %13 = getelementptr inbounds i8, ptr %.030.i, i64 24
  %14 = load i32, ptr %13, align 4
  %15 = icmp slt i32 %14, %1
  br i1 %15, label %_Z15qMapLessThanKeyI5QPairIiiEEbRKT_S4_.exit.thread.i, label %16

16:                                               ; preds = %.lr.ph.i
  %17 = icmp sgt i32 %14, %1
  br i1 %17, label %_Z15qMapLessThanKeyI5QPairIiiEEbRKT_S4_.exit.thread25.i, label %_Z15qMapLessThanKeyI5QPairIiiEEbRKT_S4_.exit.i

_Z15qMapLessThanKeyI5QPairIiiEEbRKT_S4_.exit.i:   ; preds = %16
  %18 = getelementptr inbounds i8, ptr %.030.i, i64 28
  %19 = load i32, ptr %18, align 4
  %20 = icmp slt i32 %19, %2
  br i1 %20, label %_Z15qMapLessThanKeyI5QPairIiiEEbRKT_S4_.exit.thread.i, label %_Z15qMapLessThanKeyI5QPairIiiEEbRKT_S4_.exit.thread25.i

_Z15qMapLessThanKeyI5QPairIiiEEbRKT_S4_.exit.thread.i: ; preds = %_Z15qMapLessThanKeyI5QPairIiiEEbRKT_S4_.exit.i, %.lr.ph.i
  br label %_Z15qMapLessThanKeyI5QPairIiiEEbRKT_S4_.exit.thread25.i

_Z15qMapLessThanKeyI5QPairIiiEEbRKT_S4_.exit.thread25.i: ; preds = %_Z15qMapLessThanKeyI5QPairIiiEEbRKT_S4_.exit.thread.i, %_Z15qMapLessThanKeyI5QPairIiiEEbRKT_S4_.exit.i, %16
  %.sink.i = phi i64 [ 16, %_Z15qMapLessThanKeyI5QPairIiiEEbRKT_S4_.exit.thread.i ], [ 8, %16 ], [ 8, %_Z15qMapLessThanKeyI5QPairIiiEEbRKT_S4_.exit.i ]
  %.119.i = phi i1 [ false, %_Z15qMapLessThanKeyI5QPairIiiEEbRKT_S4_.exit.thread.i ], [ true, %16 ], [ true, %_Z15qMapLessThanKeyI5QPairIiiEEbRKT_S4_.exit.i ]
  %.121.i = phi ptr [ %.02029.i, %_Z15qMapLessThanKeyI5QPairIiiEEbRKT_S4_.exit.thread.i ], [ %.030.i, %16 ], [ %.030.i, %_Z15qMapLessThanKeyI5QPairIiiEEbRKT_S4_.exit.i ]
  %21 = getelementptr inbounds i8, ptr %.030.i, i64 %.sink.i
  %.0.i = load ptr, ptr %21, align 8
  %.not.i = icmp eq ptr %.0.i, null
  br i1 %.not.i, label %._crit_edge.i, label %.lr.ph.i, !llvm.loop !98

._crit_edge.i:                                    ; preds = %_Z15qMapLessThanKeyI5QPairIiiEEbRKT_S4_.exit.thread25.i
  %.not23.i = icmp eq ptr %.121.i, null
  br i1 %.not23.i, label %_Z15qMapLessThanKeyI5QPairIiiEEbRKT_S4_.exit24.thread.i, label %22

22:                                               ; preds = %._crit_edge.i
  %23 = getelementptr inbounds i8, ptr %.121.i, i64 24
  %24 = load i32, ptr %23, align 4
  %25 = icmp sgt i32 %24, %1
  br i1 %25, label %_Z15qMapLessThanKeyI5QPairIiiEEbRKT_S4_.exit24.thread.i, label %26

26:                                               ; preds = %22
  %27 = icmp slt i32 %24, %1
  br i1 %27, label %_ZN4QMapI5QPairIiiEbE6insertERKS1_RKb.exit, label %_Z15qMapLessThanKeyI5QPairIiiEEbRKT_S4_.exit24.i

_Z15qMapLessThanKeyI5QPairIiiEEbRKT_S4_.exit24.i: ; preds = %26
  %28 = getelementptr inbounds i8, ptr %.121.i, i64 28
  %29 = load i32, ptr %28, align 4
  %30 = icmp sgt i32 %29, %2
  br i1 %30, label %_Z15qMapLessThanKeyI5QPairIiiEEbRKT_S4_.exit24.thread.i, label %_ZN4QMapI5QPairIiiEbE6insertERKS1_RKb.exit

_Z15qMapLessThanKeyI5QPairIiiEEbRKT_S4_.exit24.thread.i: ; preds = %_Z15qMapLessThanKeyI5QPairIiiEEbRKT_S4_.exit24.i, %22, %._crit_edge.i, %_ZN4QMapI5QPairIiiEbE6detachEv.exit.i
  %.018.lcssa38.i = phi i1 [ %.119.i, %22 ], [ %.119.i, %_Z15qMapLessThanKeyI5QPairIiiEEbRKT_S4_.exit24.i ], [ %.119.i, %._crit_edge.i ], [ true, %_ZN4QMapI5QPairIiiEbE6detachEv.exit.i ]
  %.022.lcssa37.i = phi ptr [ %.030.i, %22 ], [ %.030.i, %_Z15qMapLessThanKeyI5QPairIiiEEbRKT_S4_.exit24.i ], [ %.030.i, %._crit_edge.i ], [ %12, %_ZN4QMapI5QPairIiiEbE6detachEv.exit.i ]
  %31 = tail call noundef ptr @_ZN12QMapDataBase10createNodeEiiP12QMapNodeBaseb(ptr noundef nonnull align 8 dereferenceable(40) %10, i32 noundef 40, i32 noundef 8, ptr noundef nonnull %.022.lcssa37.i, i1 noundef zeroext %.018.lcssa38.i)
  %32 = getelementptr inbounds i8, ptr %31, i64 24
  %.sroa.0.0.insert.ext = zext i32 %1 to i64
  %.sroa.0.0.insert.insert = or disjoint i64 %.sroa.2.0.insert.shift.i, %.sroa.0.0.insert.ext
  store i64 %.sroa.0.0.insert.insert, ptr %32, align 8
  br label %_ZN4QMapI5QPairIiiEbE6insertERKS1_RKb.exit

_ZN4QMapI5QPairIiiEbE6insertERKS1_RKb.exit:       ; preds = %26, %_Z15qMapLessThanKeyI5QPairIiiEEbRKT_S4_.exit24.i, %_Z15qMapLessThanKeyI5QPairIiiEEbRKT_S4_.exit24.thread.i
  %.121.i.lcssa.sink = phi ptr [ %31, %_Z15qMapLessThanKeyI5QPairIiiEEbRKT_S4_.exit24.thread.i ], [ %.121.i, %_Z15qMapLessThanKeyI5QPairIiiEEbRKT_S4_.exit24.i ], [ %.121.i, %26 ]
  %33 = zext i1 %3 to i8
  %34 = getelementptr inbounds i8, ptr %.121.i.lcssa.sink, i64 32
  store i8 %33, ptr %34, align 8
  ret void
}